target datalayout = "e-m:e-p270:32:32-p271:32:32-p272:64:64-i64:64-i128:128-f80:128-n8:16:32:64-S128"
target triple = "x86_64-pc-linux-gnu"

%"struct.cv::phase_unwrapping::HistogramPhaseUnwrapping::Params" = type { i32, i32, float, i32, i32 }
%"class.cv::phase_unwrapping::HistogramPhaseUnwrapping_Impl" = type { %"class.cv::phase_unwrapping::HistogramPhaseUnwrapping", %"struct.cv::phase_unwrapping::HistogramPhaseUnwrapping::Params", %"class.std::vector", %"class.cv::phase_unwrapping::HistogramPhaseUnwrapping_Impl::Histogram" }
%"class.cv::phase_unwrapping::HistogramPhaseUnwrapping" = type { %"class.cv::phase_unwrapping::PhaseUnwrapping" }
%"class.cv::phase_unwrapping::PhaseUnwrapping" = type { %"class.cv::Algorithm" }
%"class.cv::Algorithm" = type { ptr }
%"class.std::vector" = type { %"struct.std::_Vector_base" }
%"struct.std::_Vector_base" = type { %"struct.std::_Vector_base<cv::phase_unwrapping::HistogramPhaseUnwrapping_Impl::Pixel, std::allocator<cv::phase_unwrapping::HistogramPhaseUnwrapping_Impl::Pixel>>::_Vector_impl" }
%"struct.std::_Vector_base<cv::phase_unwrapping::HistogramPhaseUnwrapping_Impl::Pixel, std::allocator<cv::phase_unwrapping::HistogramPhaseUnwrapping_Impl::Pixel>>::_Vector_impl" = type { %"struct.std::_Vector_base<cv::phase_unwrapping::HistogramPhaseUnwrapping_Impl::Pixel, std::allocator<cv::phase_unwrapping::HistogramPhaseUnwrapping_Impl::Pixel>>::_Vector_impl_data" }
%"struct.std::_Vector_base<cv::phase_unwrapping::HistogramPhaseUnwrapping_Impl::Pixel, std::allocator<cv::phase_unwrapping::HistogramPhaseUnwrapping_Impl::Pixel>>::_Vector_impl_data" = type { ptr, ptr, ptr }
%"class.cv::phase_unwrapping::HistogramPhaseUnwrapping_Impl::Histogram" = type { %"class.std::vector.0", float, float, float, i32, i32, i32 }
%"class.std::vector.0" = type { %"struct.std::_Vector_base.1" }
%"struct.std::_Vector_base.1" = type { %"struct.std::_Vector_base<cv::phase_unwrapping::HistogramPhaseUnwrapping_Impl::HistogramBin, std::allocator<cv::phase_unwrapping::HistogramPhaseUnwrapping_Impl::HistogramBin>>::_Vector_impl" }
%"struct.std::_Vector_base<cv::phase_unwrapping::HistogramPhaseUnwrapping_Impl::HistogramBin, std::allocator<cv::phase_unwrapping::HistogramPhaseUnwrapping_Impl::HistogramBin>>::_Vector_impl" = type { %"struct.std::_Vector_base<cv::phase_unwrapping::HistogramPhaseUnwrapping_Impl::HistogramBin, std::allocator<cv::phase_unwrapping::HistogramPhaseUnwrapping_Impl::HistogramBin>>::_Vector_impl_data" }
%"struct.std::_Vector_base<cv::phase_unwrapping::HistogramPhaseUnwrapping_Impl::HistogramBin, std::allocator<cv::phase_unwrapping::HistogramPhaseUnwrapping_Impl::HistogramBin>>::_Vector_impl_data" = type { ptr, ptr, ptr }
%"class.cv::phase_unwrapping::HistogramPhaseUnwrapping_Impl::Pixel" = type <{ float, i32, i8, [3 x i8], float, i32, i32, i32, i8, [3 x i8] }>
%"class.cv::Mat" = type { i32, i32, i32, i32, ptr, ptr, ptr, ptr, ptr, ptr, %"struct.cv::MatSize", %"struct.cv::MatStep" }
%"struct.cv::MatSize" = type { ptr }
%"struct.cv::MatStep" = type { ptr, [2 x i64] }
%"class.cv::_InputArray" = type { i32, ptr, %"class.cv::Size_" }
%"class.cv::Size_" = type { i32, i32 }

; Function Attrs: inlinehint mustprogress nounwind uwtable
define linkonce_odr hidden noundef nonnull align 4 dereferenceable(4) ptr @_ZN2cv3Mat2atIfEERT_ii(ptr noundef nonnull align 8 dereferenceable(96) %0, i32 noundef %1, i32 noundef %2) #2 comdat align 2 {
  %4 = alloca ptr, align 8
  %5 = alloca i32, align 4
  %6 = alloca i32, align 4
  store ptr %0, ptr %4, align 8, !tbaa !95
  store i32 %1, ptr %5, align 4, !tbaa !23
  store i32 %2, ptr %6, align 4, !tbaa !23
  %7 = load ptr, ptr %4, align 8
  %8 = getelementptr inbounds nuw %"class.cv::Mat", ptr %7, i32 0, i32 4
  %9 = load ptr, ptr %8, align 8, !tbaa !137
  %10 = getelementptr inbounds nuw %"class.cv::Mat", ptr %7, i32 0, i32 11
  %11 = getelementptr inbounds nuw %"struct.cv::MatStep", ptr %10, i32 0, i32 0
  %12 = load ptr, ptr %11, align 8, !tbaa !138
  %13 = getelementptr inbounds i64, ptr %12, i64 0
  %14 = load i64, ptr %13, align 8, !tbaa !88
  %15 = load i32, ptr %5, align 4, !tbaa !23
  %16 = sext i32 %15 to i64
  %17 = mul i64 %14, %16
  %18 = getelementptr inbounds nuw i8, ptr %9, i64 %17
  %19 = load i32, ptr %6, align 4, !tbaa !23
  %20 = sext i32 %19 to i64
  %21 = getelementptr inbounds float, ptr %18, i64 %20
  ret ptr %21
}

; Function Attrs: mustprogress nounwind uwtable
define noundef float @_ZN2cv16phase_unwrapping29HistogramPhaseUnwrapping_Impl5Pixel21getInverseReliabilityEv(ptr noundef nonnull align 4 dereferenceable(29) %0) #0 align 2 {
  %2 = alloca ptr, align 8
  store ptr %0, ptr %2, align 8, !tbaa !33
  %3 = load ptr, ptr %2, align 8
  %4 = getelementptr inbounds nuw %"class.cv::phase_unwrapping::HistogramPhaseUnwrapping_Impl::Pixel", ptr %3, i32 0, i32 4
  %5 = load float, ptr %4, align 4, !tbaa !42
  ret float %5
}

; Function Attrs: mustprogress nounwind uwtable
define linkonce_odr hidden noundef nonnull align 4 dereferenceable(29) ptr @_ZNSt6vectorIN2cv16phase_unwrapping29HistogramPhaseUnwrapping_Impl5PixelESaIS3_EEixEm(ptr noundef nonnull align 8 dereferenceable(24) %0, i64 noundef %1) #0 comdat align 2 {
  %3 = alloca ptr, align 8
  %4 = alloca i64, align 8
  store ptr %0, ptr %3, align 8, !tbaa !27
  store i64 %1, ptr %4, align 8, !tbaa !88
  %5 = load ptr, ptr %3, align 8
  %6 = getelementptr inbounds nuw %"struct.std::_Vector_base", ptr %5, i32 0, i32 0
  %7 = getelementptr inbounds nuw %"struct.std::_Vector_base<cv::phase_unwrapping::HistogramPhaseUnwrapping_Impl::Pixel, std::allocator<cv::phase_unwrapping::HistogramPhaseUnwrapping_Impl::Pixel>>::_Vector_impl_data", ptr %6, i32 0, i32 0
  %8 = load ptr, ptr %7, align 8, !tbaa !29
  %9 = load i64, ptr %4, align 8, !tbaa !88
  %10 = getelementptr inbounds nuw %"class.cv::phase_unwrapping::HistogramPhaseUnwrapping_Impl::Pixel", ptr %8, i64 %9
  ret ptr %10
}

; Function Attrs: inlinehint mustprogress nounwind uwtable
define linkonce_odr hidden noundef ptr @_ZNK2cv11_InputArray6getObjEv(ptr noundef nonnull align 8 dereferenceable(24) %0) #2 comdat align 2 {
  %2 = alloca ptr, align 8
  store ptr %0, ptr %2, align 8, !tbaa !91
  %3 = load ptr, ptr %2, align 8
  %4 = getelementptr inbounds nuw %"class.cv::_InputArray", ptr %3, i32 0, i32 1
  %5 = load ptr, ptr %4, align 8, !tbaa !105
  ret ptr %5
}

; Function Attrs: mustprogress uwtable
define void @_ZN2cv16phase_unwrapping29HistogramPhaseUnwrapping_Impl24getInverseReliabilityMapERKNS_12_OutputArrayE(ptr noundef nonnull align 8 dereferenceable(104) %0, ptr noundef nonnull align 8 dereferenceable(24) %1) unnamed_addr #1 align 2 {
  %3 = alloca ptr, align 8
  %4 = alloca ptr, align 8
  %5 = alloca i32, align 4
  %6 = alloca i32, align 4
  %7 = alloca ptr, align 8
  %8 = alloca i32, align 4
  %9 = alloca i32, align 4
  %10 = alloca i32, align 4
  %11 = alloca i32, align 4
  store ptr %0, ptr %3, align 8, !tbaa !16
  store ptr %1, ptr %4, align 8, !tbaa !93
  %12 = load ptr, ptr %3, align 8
  call void @llvm.lifetime.start.p0(i64 4, ptr %5) #18
  %13 = getelementptr inbounds nuw %"class.cv::phase_unwrapping::HistogramPhaseUnwrapping_Impl", ptr %12, i32 0, i32 1
  %14 = getelementptr inbounds nuw %"struct.cv::phase_unwrapping::HistogramPhaseUnwrapping::Params", ptr %13, i32 0, i32 1
  %15 = load i32, ptr %14, align 4, !tbaa !97
  store i32 %15, ptr %5, align 4, !tbaa !23
  call void @llvm.lifetime.start.p0(i64 4, ptr %6) #18
  %16 = getelementptr inbounds nuw %"class.cv::phase_unwrapping::HistogramPhaseUnwrapping_Impl", ptr %12, i32 0, i32 1
  %17 = getelementptr inbounds nuw %"struct.cv::phase_unwrapping::HistogramPhaseUnwrapping::Params", ptr %16, i32 0, i32 0
  %18 = load i32, ptr %17, align 8, !tbaa !104
  store i32 %18, ptr %6, align 4, !tbaa !23
  call void @llvm.lifetime.start.p0(i64 8, ptr %7) #18
  %19 = load ptr, ptr %4, align 8, !tbaa !93
  %20 = call noundef ptr @_ZNK2cv11_InputArray6getObjEv(ptr noundef nonnull align 8 dereferenceable(24) %19)
  store ptr %20, ptr %7, align 8, !tbaa !95
  %21 = load ptr, ptr %7, align 8, !tbaa !95
  %22 = call noundef zeroext i1 @_ZNK2cv3Mat5emptyEv(ptr noundef nonnull align 8 dereferenceable(96) %21)
  br i1 %22, label %23, label %27

23:                                               ; preds = %2
  %24 = load ptr, ptr %7, align 8, !tbaa !95
  %25 = load i32, ptr %5, align 4, !tbaa !23
  %26 = load i32, ptr %6, align 4, !tbaa !23
  call void @_ZN2cv3Mat6createEiii(ptr noundef nonnull align 8 dereferenceable(96) %24, i32 noundef %25, i32 noundef %26, i32 noundef 5)
  br label %27

27:                                               ; preds = %23, %2
  call void @llvm.lifetime.start.p0(i64 4, ptr %8) #18
  store i32 0, ptr %8, align 4, !tbaa !23
  br label %28

28:                                               ; preds = %58, %27
  %29 = load i32, ptr %8, align 4, !tbaa !23
  %30 = load i32, ptr %5, align 4, !tbaa !23
  %31 = icmp slt i32 %29, %30
  br i1 %31, label %33, label %32

32:                                               ; preds = %28
  store i32 2, ptr %9, align 4
  call void @llvm.lifetime.end.p0(i64 4, ptr %8) #18
  br label %61

33:                                               ; preds = %28
  call void @llvm.lifetime.start.p0(i64 4, ptr %10) #18
  store i32 0, ptr %10, align 4, !tbaa !23
  br label %34

34:                                               ; preds = %54, %33
  %35 = load i32, ptr %10, align 4, !tbaa !23
  %36 = load i32, ptr %6, align 4, !tbaa !23
  %37 = icmp slt i32 %35, %36
  br i1 %37, label %39, label %38

38:                                               ; preds = %34
  store i32 5, ptr %9, align 4
  call void @llvm.lifetime.end.p0(i64 4, ptr %10) #18
  br label %57

39:                                               ; preds = %34
  call void @llvm.lifetime.start.p0(i64 4, ptr %11) #18
  %40 = load i32, ptr %8, align 4, !tbaa !23
  %41 = load i32, ptr %6, align 4, !tbaa !23
  %42 = mul nsw i32 %40, %41
  %43 = load i32, ptr %10, align 4, !tbaa !23
  %44 = add nsw i32 %42, %43
  store i32 %44, ptr %11, align 4, !tbaa !23
  %45 = getelementptr inbounds nuw %"class.cv::phase_unwrapping::HistogramPhaseUnwrapping_Impl", ptr %12, i32 0, i32 2
  %46 = load i32, ptr %11, align 4, !tbaa !23
  %47 = sext i32 %46 to i64
  %48 = call noundef nonnull align 4 dereferenceable(29) ptr @_ZNSt6vectorIN2cv16phase_unwrapping29HistogramPhaseUnwrapping_Impl5PixelESaIS3_EEixEm(ptr noundef nonnull align 8 dereferenceable(24) %45, i64 noundef %47) #18
  %49 = call noundef float @_ZN2cv16phase_unwrapping29HistogramPhaseUnwrapping_Impl5Pixel21getInverseReliabilityEv(ptr noundef nonnull align 4 dereferenceable(29) %48)
  %50 = load ptr, ptr %7, align 8, !tbaa !95
  %51 = load i32, ptr %8, align 4, !tbaa !23
  %52 = load i32, ptr %10, align 4, !tbaa !23
  %53 = call noundef nonnull align 4 dereferenceable(4) ptr @_ZN2cv3Mat2atIfEERT_ii(ptr noundef nonnull align 8 dereferenceable(96) %50, i32 noundef %51, i32 noundef %52)
  store float %49, ptr %53, align 4, !tbaa !24
  call void @llvm.lifetime.end.p0(i64 4, ptr %11) #18
  br label %54

54:                                               ; preds = %39
  %55 = load i32, ptr %10, align 4, !tbaa !23
  %56 = add nsw i32 %55, 1
  store i32 %56, ptr %10, align 4, !tbaa !23
  br label %34, !llvm.loop !157

57:                                               ; preds = %38
  br label %58

58:                                               ; preds = %57
  %59 = load i32, ptr %8, align 4, !tbaa !23
  %60 = add nsw i32 %59, 1
  store i32 %60, ptr %8, align 4, !tbaa !23
  br label %28, !llvm.loop !158

61:                                               ; preds = %32
  call void @llvm.lifetime.end.p0(i64 8, ptr %7) #18
  call void @llvm.lifetime.end.p0(i64 4, ptr %6) #18
  call void @llvm.lifetime.end.p0(i64 4, ptr %5) #18
  ret void
}