; Function Attrs: mustprogress uwtable
define void @_ZN2cv16phase_unwrapping29HistogramPhaseUnwrapping_Impl24getInverseReliabilityMapERKNS_12_OutputArrayE(ptr noundef nonnull readonly align 8 captures(none) dereferenceable(104) %0, ptr noundef nonnull readonly align 8 captures(none) dereferenceable(24) %1) unnamed_addr #1 align 2 {
  %3 = getelementptr inbounds nuw i8, ptr %0, i64 8
  %4 = getelementptr inbounds nuw i8, ptr %0, i64 12
  %5 = load i32, ptr %4, align 4, !tbaa !86
  %6 = load i32, ptr %3, align 8, !tbaa !93
  %7 = getelementptr inbounds nuw i8, ptr %1, i64 8
  %8 = load ptr, ptr %7, align 8, !tbaa !83
  %9 = tail call noundef zeroext i1 @_ZNK2cv3Mat5emptyEv(ptr noundef nonnull align 8 dereferenceable(96) %8)
  br i1 %9, label %10, label %11

10:                                               ; preds = %2
  tail call void @_ZN2cv3Mat6createEiii(ptr noundef nonnull align 8 dereferenceable(96) %8, i32 noundef %5, i32 noundef %6, i32 noundef 5)
  br label %11

11:                                               ; preds = %10, %2
  %12 = icmp sgt i32 %5, 0
  br i1 %12, label %.preheader.lr.ph, label %._crit_edge22

.preheader.lr.ph:                                 ; preds = %11
  %13 = icmp sgt i32 %6, 0
  %14 = getelementptr inbounds nuw i8, ptr %0, i64 32
  %15 = load ptr, ptr %14, align 8
  br i1 %13, label %.preheader.lr.ph.split.us, label %._crit_edge22

.preheader.lr.ph.split.us:                        ; preds = %.preheader.lr.ph
  %16 = getelementptr inbounds nuw i8, ptr %8, i64 72
  %17 = getelementptr inbounds nuw i8, ptr %8, i64 16
  %18 = load ptr, ptr %17, align 8, !tbaa !111
  %19 = load ptr, ptr %16, align 8, !tbaa !112
  %20 = load i64, ptr %19, align 8, !tbaa !113
  %21 = zext nneg i32 %6 to i64
  %wide.trip.count28 = zext nneg i32 %5 to i64
  br label %.preheader.us

.preheader.us:                                    ; preds = %._crit_edge.us, %.preheader.lr.ph.split.us
  %indvars.iv25 = phi i64 [ %indvars.iv.next26, %._crit_edge.us ], [ 0, %.preheader.lr.ph.split.us ]
  %22 = mul nuw nsw i64 %indvars.iv25, %21
  %23 = mul i64 %20, %indvars.iv25
  %24 = getelementptr inbounds nuw i8, ptr %18, i64 %23
  br label %25

25:                                               ; preds = %.preheader.us, %25
  %indvars.iv = phi i64 [ 0, %.preheader.us ], [ %indvars.iv.next, %25 ]
  %26 = add nuw nsw i64 %indvars.iv, %22
  %27 = getelementptr inbounds nuw %"class.cv::phase_unwrapping::HistogramPhaseUnwrapping_Impl::Pixel", ptr %15, i64 %26, i32 4
  %28 = load float, ptr %27, align 4, !tbaa !27
  %29 = getelementptr inbounds nuw float, ptr %24, i64 %indvars.iv
  store float %28, ptr %29, align 4, !tbaa !17
  %indvars.iv.next = add nuw nsw i64 %indvars.iv, 1
  %exitcond.not = icmp eq i64 %indvars.iv.next, %21
  br i1 %exitcond.not, label %._crit_edge.us, label %25, !llvm.loop !167

._crit_edge.us:                                   ; preds = %25
  %indvars.iv.next26 = add nuw nsw i64 %indvars.iv25, 1
  %exitcond29.not = icmp eq i64 %indvars.iv.next26, %wide.trip.count28
  br i1 %exitcond29.not, label %._crit_edge22, label %.preheader.us, !llvm.loop !168

._crit_edge22:                                    ; preds = %._crit_edge.us, %.preheader.lr.ph, %11
  ret void
}